; Function Attrs: mustprogress uwtable
define i64 @_ZNK8QuantLib18FloatingRateCoupon10fixingDateEv(ptr nocapture noundef nonnull readonly align 8 dereferenceable(176) %this) unnamed_addr #8 align 2 personality ptr @__gxx_personality_v0 {
entry:
  %refDate = alloca %"class.QuantLib::Date", align 8
  %ref.tmp = alloca %"class.QuantLib::Calendar", align 8
  call void @llvm.lifetime.start.p0(i64 8, ptr nonnull %refDate) #26
  %isInArrears_ = getelementptr inbounds nuw i8, ptr %this, i64 144
  %0 = load i8, ptr %isInArrears_, align 8, !tbaa !77, !range !26, !noundef !27
  %loadedv = trunc nuw i8 %0 to i1
  %cond.v = select i1 %loadedv, i64 48, i64 40
  %cond = getelementptr inbounds nuw i8, ptr %this, i64 %cond.v
  %1 = load i64, ptr %cond, align 8, !tbaa !37
  store i64 %1, ptr %refDate, align 8, !tbaa !37
  call void @llvm.lifetime.start.p0(i64 16, ptr nonnull %ref.tmp) #26
  %index_ = getelementptr inbounds nuw i8, ptr %this, i64 88
  %2 = load ptr, ptr %index_, align 8, !tbaa !50
  %cmp.not.i = icmp eq ptr %2, null
  br i1 %cmp.not.i, label %cond.false.i, label %_ZNK5boost10shared_ptrIN8QuantLib17InterestRateIndexEEptEv.exit, !prof !96

cond.false.i:                                     ; preds = %entry
  tail call void @_ZN5boost16assertion_failedEPKcS1_S1_l(ptr noundef nonnull @.str.13, ptr noundef nonnull @__PRETTY_FUNCTION__._ZNK5boost10shared_ptrIN8QuantLib17InterestRateIndexEEptEv, ptr noundef nonnull @.str.14, i64 noundef 784)
  %.pre.i = load ptr, ptr %index_, align 8, !tbaa !50
  br label %_ZNK5boost10shared_ptrIN8QuantLib17InterestRateIndexEEptEv.exit

_ZNK5boost10shared_ptrIN8QuantLib17InterestRateIndexEEptEv.exit: ; preds = %entry, %cond.false.i
  %3 = phi ptr [ %2, %entry ], [ %.pre.i, %cond.false.i ]
  %vtable = load ptr, ptr %3, align 8, !tbaa !33
  %vfn = getelementptr inbounds i8, ptr %vtable, i64 24
  %4 = load ptr, ptr %vfn, align 8
  call void %4(ptr dead_on_unwind nonnull writable sret(%"class.QuantLib::Calendar") align 8 %ref.tmp, ptr noundef nonnull align 8 dereferenceable(240) %3)
  %fixingDays_ = getelementptr inbounds nuw i8, ptr %this, i64 120
  %5 = load i32, ptr %fixingDays_, align 8, !tbaa !72
  %sub = sub nsw i32 0, %5
  %call2 = invoke i64 @_ZNK8QuantLib8Calendar7advanceERKNS_4DateEiNS_8TimeUnitENS_21BusinessDayConventionEb(ptr noundef nonnull align 8 dereferenceable(16) %ref.tmp, ptr noundef nonnull align 8 dereferenceable(8) %refDate, i32 noundef %sub, i32 noundef 0, i32 noundef 2, i1 noundef zeroext false)
          to label %invoke.cont unwind label %lpad

invoke.cont:                                      ; preds = %_ZNK5boost10shared_ptrIN8QuantLib17InterestRateIndexEEptEv.exit
  %pn.i.i = getelementptr inbounds nuw i8, ptr %ref.tmp, i64 8
  %6 = load ptr, ptr %pn.i.i, align 8, !tbaa !42
  %cmp.not.i.i.i = icmp eq ptr %6, null
  br i1 %cmp.not.i.i.i, label %_ZN8QuantLib8CalendarD2Ev.exit, label %if.then.i.i.i

if.then.i.i.i:                                    ; preds = %invoke.cont
  %use_count_.i.i.i.i = getelementptr inbounds nuw i8, ptr %6, i64 8
  %7 = atomicrmw sub ptr %use_count_.i.i.i.i, i32 1 acq_rel, align 4
  %cmp.i.i.i.i = icmp eq i32 %7, 1
  br i1 %cmp.i.i.i.i, label %if.then.i.i.i.i, label %_ZN8QuantLib8CalendarD2Ev.exit

if.then.i.i.i.i:                                  ; preds = %if.then.i.i.i
  %vtable.i.i.i.i = load ptr, ptr %6, align 8, !tbaa !33
  %vfn.i.i.i.i = getelementptr inbounds i8, ptr %vtable.i.i.i.i, i64 16
  %8 = load ptr, ptr %vfn.i.i.i.i, align 8
  invoke void %8(ptr noundef nonnull align 8 dereferenceable(16) %6)
          to label %.noexc.i.i.i unwind label %terminate.lpad.i.i.i

.noexc.i.i.i:                                     ; preds = %if.then.i.i.i.i
  %weak_count_.i.i.i.i.i = getelementptr inbounds nuw i8, ptr %6, i64 12
  %9 = atomicrmw sub ptr %weak_count_.i.i.i.i.i, i32 1 acq_rel, align 4
  %cmp.i.i.i.i.i = icmp eq i32 %9, 1
  br i1 %cmp.i.i.i.i.i, label %if.then.i.i.i.i.i, label %_ZN8QuantLib8CalendarD2Ev.exit

if.then.i.i.i.i.i:                                ; preds = %.noexc.i.i.i
  %vtable.i.i.i.i.i = load ptr, ptr %6, align 8, !tbaa !33
  %vfn.i.i.i.i.i = getelementptr inbounds i8, ptr %vtable.i.i.i.i.i, i64 24
  %10 = load ptr, ptr %vfn.i.i.i.i.i, align 8
  invoke void %10(ptr noundef nonnull align 8 dereferenceable(16) %6)
          to label %_ZN8QuantLib8CalendarD2Ev.exit unwind label %terminate.lpad.i.i.i

terminate.lpad.i.i.i:                             ; preds = %if.then.i.i.i.i.i, %if.then.i.i.i.i
  %11 = landingpad { ptr, i32 }
          catch ptr null
  %12 = extractvalue { ptr, i32 } %11, 0
  call void @__clang_call_terminate(ptr %12) #27
  unreachable

_ZN8QuantLib8CalendarD2Ev.exit:                   ; preds = %invoke.cont, %if.then.i.i.i, %.noexc.i.i.i, %if.then.i.i.i.i.i
  call void @llvm.lifetime.end.p0(i64 16, ptr nonnull %ref.tmp) #26
  call void @llvm.lifetime.end.p0(i64 8, ptr nonnull %refDate) #26
  ret i64 %call2

lpad:                                             ; preds = %_ZNK5boost10shared_ptrIN8QuantLib17InterestRateIndexEEptEv.exit
  %13 = landingpad { ptr, i32 }
          cleanup
  call void @_ZN8QuantLib8CalendarD2Ev(ptr noundef nonnull align 8 dereferenceable(16) %ref.tmp) #26
  call void @llvm.lifetime.end.p0(i64 16, ptr nonnull %ref.tmp) #26
  call void @llvm.lifetime.end.p0(i64 8, ptr nonnull %refDate) #26
  resume { ptr, i32 } %13
}